; Function Attrs: mustprogress uwtable
define noundef i64 @_Z15fast_rv32i_sraiP11processor_t6insn_tm(ptr nocapture noundef %0, i64 %1, i64 noundef %2) local_unnamed_addr #3 personality ptr @__gxx_personality_v0 {
  %4 = and i64 %1, 33554432
  %.not.not = icmp eq i64 %4, 0
  br i1 %.not.not, label %10, label %5

5:                                                ; preds = %3
  %6 = tail call ptr @__cxa_allocate_exception(i64 32) #14
  %7 = getelementptr inbounds i8, ptr %6, i64 8
  store i64 2, ptr %7, align 8
  %8 = getelementptr inbounds i8, ptr %6, i64 16
  store i8 0, ptr %8, align 8
  %9 = getelementptr inbounds i8, ptr %6, i64 24
  store i64 %1, ptr %9, align 8
  store ptr getelementptr inbounds ({ [12 x ptr] }, ptr @_ZTV24trap_illegal_instruction, i64 0, i32 0, i64 2), ptr %6, align 8
  tail call void @__cxa_throw(ptr nonnull %6, ptr nonnull @_ZTI24trap_illegal_instruction, ptr nonnull @_ZN24trap_illegal_instructionD2Ev) #15
  unreachable

10:                                               ; preds = %3
  %11 = lshr i64 %1, 7
  %12 = and i64 %11, 31
  %.not.i = icmp eq i64 %12, 0
  br i1 %.not.i, label %_ZN9regfile_tImLm32ELb1EE5writeEmm.exit, label %13

13:                                               ; preds = %10
  %14 = getelementptr inbounds i8, ptr %0, i64 120
  %15 = lshr i64 %1, 15
  %16 = and i64 %15, 31
  %17 = getelementptr inbounds [32 x i64], ptr %14, i64 0, i64 %16
  %18 = load i64, ptr %17, align 8
  %19 = shl i64 %18, 32
  %20 = ashr exact i64 %19, 32
  %21 = lshr i64 %1, 20
  %22 = and i64 %21, 31
  %23 = ashr i64 %20, %22
  %24 = getelementptr inbounds [32 x i64], ptr %14, i64 0, i64 %12
  store i64 %23, ptr %24, align 8
  br label %_ZN9regfile_tImLm32ELb1EE5writeEmm.exit

_ZN9regfile_tImLm32ELb1EE5writeEmm.exit:          ; preds = %10, %13
  %25 = shl i64 %2, 32
  %26 = add i64 %25, 17179869184
  %27 = ashr exact i64 %26, 32
  ret i64 %27
}